target datalayout = "e-m:e-p270:32:32-p271:32:32-p272:64:64-i64:64-i128:128-f80:128-n8:16:32:64-S128"
target triple = "x86_64-pc-linux-gnu"

%struct.PLpgSQL_nsitem = type { i32, i32, ptr, [0 x i8] }

; Function Attrs: nounwind uwtable
define ptr @plpgsql_ns_lookup(ptr noundef %0, i1 noundef zeroext %1, ptr noundef %2, ptr noundef %3, ptr noundef %4, ptr noundef %5) #0 {
  %7 = alloca ptr, align 8
  %8 = alloca ptr, align 8
  %9 = alloca i8, align 1
  %10 = alloca ptr, align 8
  %11 = alloca ptr, align 8
  %12 = alloca ptr, align 8
  %13 = alloca ptr, align 8
  %14 = alloca ptr, align 8
  %15 = alloca i32, align 4
  store ptr %0, ptr %8, align 8
  %16 = zext i1 %1 to i8
  store i8 %16, ptr %9, align 1
  store ptr %2, ptr %10, align 8
  store ptr %3, ptr %11, align 8
  store ptr %4, ptr %12, align 8
  store ptr %5, ptr %13, align 8
  br label %17

17:                                               ; preds = %111, %6
  %18 = load ptr, ptr %8, align 8
  %19 = icmp ne ptr %18, null
  br i1 %19, label %20, label %112

20:                                               ; preds = %17
  call void @llvm.lifetime.start.p0(i64 8, ptr %14) #8
  %21 = load ptr, ptr %8, align 8
  store ptr %21, ptr %14, align 8
  br label %22

22:                                               ; preds = %51, %20
  %23 = load ptr, ptr %14, align 8
  %24 = getelementptr inbounds nuw %struct.PLpgSQL_nsitem, ptr %23, i32 0, i32 0
  %25 = load i32, ptr %24, align 8
  %26 = icmp ne i32 %25, 0
  br i1 %26, label %27, label %55

27:                                               ; preds = %22
  %28 = load ptr, ptr %14, align 8
  %29 = getelementptr inbounds nuw %struct.PLpgSQL_nsitem, ptr %28, i32 0, i32 3
  %30 = getelementptr inbounds [0 x i8], ptr %29, i64 0, i64 0
  %31 = load ptr, ptr %10, align 8
  %32 = call i32 @strcmp(ptr noundef %30, ptr noundef %31) #9
  %33 = icmp eq i32 %32, 0
  br i1 %33, label %34, label %50

34:                                               ; preds = %27
  %35 = load ptr, ptr %11, align 8
  %36 = icmp eq ptr %35, null
  br i1 %36, label %42, label %37

37:                                               ; preds = %34
  %38 = load ptr, ptr %14, align 8
  %39 = getelementptr inbounds nuw %struct.PLpgSQL_nsitem, ptr %38, i32 0, i32 0
  %40 = load i32, ptr %39, align 8
  %41 = icmp ne i32 %40, 1
  br i1 %41, label %42, label %49

42:                                               ; preds = %37, %34
  %43 = load ptr, ptr %13, align 8
  %44 = icmp ne ptr %43, null
  br i1 %44, label %45, label %47

45:                                               ; preds = %42
  %46 = load ptr, ptr %13, align 8
  store i32 1, ptr %46, align 4
  br label %47

47:                                               ; preds = %45, %42
  %48 = load ptr, ptr %14, align 8
  store ptr %48, ptr %7, align 8
  store i32 1, ptr %15, align 4
  br label %109

49:                                               ; preds = %37
  br label %50

50:                                               ; preds = %49, %27
  br label %51

51:                                               ; preds = %50
  %52 = load ptr, ptr %14, align 8
  %53 = getelementptr inbounds nuw %struct.PLpgSQL_nsitem, ptr %52, i32 0, i32 2
  %54 = load ptr, ptr %53, align 8
  store ptr %54, ptr %14, align 8
  br label %22, !llvm.loop !5

55:                                               ; preds = %22
  %56 = load ptr, ptr %11, align 8
  %57 = icmp ne ptr %56, null
  br i1 %57, label %58, label %101

58:                                               ; preds = %55
  %59 = load ptr, ptr %14, align 8
  %60 = getelementptr inbounds nuw %struct.PLpgSQL_nsitem, ptr %59, i32 0, i32 3
  %61 = getelementptr inbounds [0 x i8], ptr %60, i64 0, i64 0
  %62 = load ptr, ptr %10, align 8
  %63 = call i32 @strcmp(ptr noundef %61, ptr noundef %62) #9
  %64 = icmp eq i32 %63, 0
  br i1 %64, label %65, label %101

65:                                               ; preds = %58
  %66 = load ptr, ptr %8, align 8
  store ptr %66, ptr %14, align 8
  br label %67

67:                                               ; preds = %96, %65
  %68 = load ptr, ptr %14, align 8
  %69 = getelementptr inbounds nuw %struct.PLpgSQL_nsitem, ptr %68, i32 0, i32 0
  %70 = load i32, ptr %69, align 8
  %71 = icmp ne i32 %70, 0
  br i1 %71, label %72, label %100

72:                                               ; preds = %67
  %73 = load ptr, ptr %14, align 8
  %74 = getelementptr inbounds nuw %struct.PLpgSQL_nsitem, ptr %73, i32 0, i32 3
  %75 = getelementptr inbounds [0 x i8], ptr %74, i64 0, i64 0
  %76 = load ptr, ptr %11, align 8
  %77 = call i32 @strcmp(ptr noundef %75, ptr noundef %76) #9
  %78 = icmp eq i32 %77, 0
  br i1 %78, label %79, label %95

79:                                               ; preds = %72
  %80 = load ptr, ptr %12, align 8
  %81 = icmp eq ptr %80, null
  br i1 %81, label %87, label %82

82:                                               ; preds = %79
  %83 = load ptr, ptr %14, align 8
  %84 = getelementptr inbounds nuw %struct.PLpgSQL_nsitem, ptr %83, i32 0, i32 0
  %85 = load i32, ptr %84, align 8
  %86 = icmp ne i32 %85, 1
  br i1 %86, label %87, label %94

87:                                               ; preds = %82, %79
  %88 = load ptr, ptr %13, align 8
  %89 = icmp ne ptr %88, null
  br i1 %89, label %90, label %92

90:                                               ; preds = %87
  %91 = load ptr, ptr %13, align 8
  store i32 2, ptr %91, align 4
  br label %92

92:                                               ; preds = %90, %87
  %93 = load ptr, ptr %14, align 8
  store ptr %93, ptr %7, align 8
  store i32 1, ptr %15, align 4
  br label %109

94:                                               ; preds = %82
  br label %95

95:                                               ; preds = %94, %72
  br label %96

96:                                               ; preds = %95
  %97 = load ptr, ptr %14, align 8
  %98 = getelementptr inbounds nuw %struct.PLpgSQL_nsitem, ptr %97, i32 0, i32 2
  %99 = load ptr, ptr %98, align 8
  store ptr %99, ptr %14, align 8
  br label %67, !llvm.loop !6

100:                                              ; preds = %67
  br label %101

101:                                              ; preds = %100, %58, %55
  %102 = load i8, ptr %9, align 1, !range !7, !noundef !8
  %103 = trunc i8 %102 to i1
  br i1 %103, label %104, label %105

104:                                              ; preds = %101
  store i32 3, ptr %15, align 4
  br label %109

105:                                              ; preds = %101
  %106 = load ptr, ptr %14, align 8
  %107 = getelementptr inbounds nuw %struct.PLpgSQL_nsitem, ptr %106, i32 0, i32 2
  %108 = load ptr, ptr %107, align 8
  store ptr %108, ptr %8, align 8
  store i32 0, ptr %15, align 4
  br label %109

109:                                              ; preds = %105, %104, %92, %47
  call void @llvm.lifetime.end.p0(i64 8, ptr %14) #8
  %110 = load i32, ptr %15, align 4
  switch i32 %110, label %120 [
    i32 0, label %111
    i32 1, label %118
    i32 3, label %112
  ]

111:                                              ; preds = %109
  br label %17, !llvm.loop !9

112:                                              ; preds = %109, %17
  %113 = load ptr, ptr %13, align 8
  %114 = icmp ne ptr %113, null
  br i1 %114, label %115, label %117

115:                                              ; preds = %112
  %116 = load ptr, ptr %13, align 8
  store i32 0, ptr %116, align 4
  br label %117

117:                                              ; preds = %115, %112
  store ptr null, ptr %7, align 8
  br label %118

118:                                              ; preds = %117, %109
  %119 = load ptr, ptr %7, align 8
  ret ptr %119

120:                                              ; preds = %109
  unreachable
}