; Function Attrs: nofree nounwind memory(read, argmem: readwrite, inaccessiblemem: none) uwtable
define noundef ptr @plpgsql_ns_lookup(ptr noundef readonly captures(address_is_null, ret: address, provenance) %0, i1 noundef zeroext %1, ptr noundef readonly captures(none) %2, ptr noundef readonly captures(address_is_null) %3, ptr noundef readnone captures(address_is_null) %4, ptr noundef writeonly captures(address_is_null) %5) local_unnamed_addr #7 {
  %.not73 = icmp eq ptr %0, null
  br i1 %.not73, label %.thread53, label %.preheader57.lr.ph

.preheader57.lr.ph:                               ; preds = %6
  %.not = icmp eq ptr %3, null
  %.not188 = icmp eq ptr %4, null
  br i1 %.not, label %.preheader57.lr.ph.split.us, label %.preheader57.us86

.preheader57.lr.ph.split.us:                      ; preds = %.preheader57.lr.ph
  br i1 %1, label %.preheader57.us.us, label %.preheader57.us

.preheader57.us.us:                               ; preds = %.preheader57.lr.ph.split.us
  %7 = load i32, ptr %0, align 8
  %.not4160.us.us = icmp eq i32 %7, 0
  br i1 %.not4160.us.us, label %.thread53, label %.lr.ph.split.us.us.us

.lr.ph.split.us.us.us:                            ; preds = %.preheader57.us.us, %11
  %.02961.us.us.us = phi ptr [ %13, %11 ], [ %0, %.preheader57.us.us ]
  %8 = getelementptr inbounds nuw i8, ptr %.02961.us.us.us, i64 16
  %9 = tail call i32 @strcmp(ptr noundef nonnull dereferenceable(1) %8, ptr noundef nonnull dereferenceable(1) %2) #15
  %10 = icmp eq i32 %9, 0
  br i1 %10, label %.split.us, label %11

11:                                               ; preds = %.lr.ph.split.us.us.us
  %12 = getelementptr inbounds nuw i8, ptr %.02961.us.us.us, i64 8
  %13 = load ptr, ptr %12, align 8
  %14 = load i32, ptr %13, align 8
  %.not41.us.us.us = icmp eq i32 %14, 0
  br i1 %.not41.us.us.us, label %.thread53, label %.lr.ph.split.us.us.us, !llvm.loop !5

.preheader57.us:                                  ; preds = %.preheader57.lr.ph.split.us, %._crit_edge.split.us.us
  %.03374.us = phi ptr [ %17, %._crit_edge.split.us.us ], [ %0, %.preheader57.lr.ph.split.us ]
  %15 = load i32, ptr %.03374.us, align 8
  %.not4160.us = icmp eq i32 %15, 0
  br i1 %.not4160.us, label %._crit_edge.split.us.us, label %.lr.ph.us

._crit_edge.split.us.us:                          ; preds = %21, %.preheader57.us
  %.029.lcssa.us = phi ptr [ %.03374.us, %.preheader57.us ], [ %23, %21 ]
  %16 = getelementptr inbounds nuw i8, ptr %.029.lcssa.us, i64 8
  %17 = load ptr, ptr %16, align 8
  %.not.us = icmp eq ptr %17, null
  br i1 %.not.us, label %.thread53, label %.preheader57.us

.lr.ph.us:                                        ; preds = %.preheader57.us, %21
  %.02961.us.us = phi ptr [ %23, %21 ], [ %.03374.us, %.preheader57.us ]
  %18 = getelementptr inbounds nuw i8, ptr %.02961.us.us, i64 16
  %19 = tail call i32 @strcmp(ptr noundef nonnull dereferenceable(1) %18, ptr noundef nonnull dereferenceable(1) %2) #15
  %20 = icmp eq i32 %19, 0
  br i1 %20, label %.split.us, label %21

21:                                               ; preds = %.lr.ph.us
  %22 = getelementptr inbounds nuw i8, ptr %.02961.us.us, i64 8
  %23 = load ptr, ptr %22, align 8
  %24 = load i32, ptr %23, align 8
  %.not41.us.us = icmp eq i32 %24, 0
  br i1 %.not41.us.us, label %._crit_edge.split.us.us, label %.lr.ph.us, !llvm.loop !5

.preheader57.us86:                                ; preds = %.preheader57.lr.ph, %44
  %.03374.us87 = phi ptr [ %46, %44 ], [ %0, %.preheader57.lr.ph ]
  %25 = load i32, ptr %.03374.us87, align 8
  %.not4160.us88 = icmp eq i32 %25, 0
  br i1 %.not4160.us88, label %.loopexit.us, label %.lr.ph.us97

.lr.ph.us97:                                      ; preds = %.preheader57.us86, %30
  %26 = phi i32 [ %33, %30 ], [ %25, %.preheader57.us86 ]
  %.02961.us89 = phi ptr [ %32, %30 ], [ %.03374.us87, %.preheader57.us86 ]
  %27 = getelementptr inbounds nuw i8, ptr %.02961.us89, i64 16
  %28 = tail call i32 @strcmp(ptr noundef nonnull dereferenceable(1) %27, ptr noundef nonnull dereferenceable(1) %2) #15
  %29 = icmp ne i32 %28, 0
  %.not46.us90 = icmp eq i32 %26, 1
  %or.cond184 = or i1 %29, %.not46.us90
  br i1 %or.cond184, label %30, label %.split.us

30:                                               ; preds = %.lr.ph.us97
  %31 = getelementptr inbounds nuw i8, ptr %.02961.us89, i64 8
  %32 = load ptr, ptr %31, align 8
  %33 = load i32, ptr %32, align 8
  %.not41.us91 = icmp eq i32 %33, 0
  br i1 %.not41.us91, label %._crit_edge.split.us98, label %.lr.ph.us97, !llvm.loop !5

._crit_edge.split.us98:                           ; preds = %30
  %34 = getelementptr inbounds nuw i8, ptr %32, i64 16
  %35 = tail call i32 @strcmp(ptr noundef nonnull dereferenceable(1) %34, ptr noundef nonnull dereferenceable(1) %2) #15
  %.not226 = icmp eq i32 %35, 0
  %.lcssa220.mux = select i1 %.not226, ptr %.03374.us87, ptr %32
  br i1 %.not226, label %.lr.ph66.us, label %.loopexit.us

.lr.ph66.split.us105:                             ; preds = %.lr.ph66.us, %40
  %36 = phi i32 [ %43, %40 ], [ %25, %.lr.ph66.us ]
  %.265.us93 = phi ptr [ %42, %40 ], [ %.03374.us87, %.lr.ph66.us ]
  %37 = getelementptr inbounds nuw i8, ptr %.265.us93, i64 16
  %38 = tail call i32 @strcmp(ptr noundef nonnull dereferenceable(1) %37, ptr noundef nonnull dereferenceable(1) %3) #15
  %39 = icmp ne i32 %38, 0
  %.not44.us = icmp eq i32 %36, 1
  %or.cond185 = or i1 %39, %.not44.us
  br i1 %or.cond185, label %40, label %.split69.us

40:                                               ; preds = %.lr.ph66.split.us105
  %41 = getelementptr inbounds nuw i8, ptr %.265.us93, i64 8
  %42 = load ptr, ptr %41, align 8
  %43 = load i32, ptr %42, align 8
  %.not43.us94 = icmp eq i32 %43, 0
  br i1 %.not43.us94, label %.loopexit.us, label %.lr.ph66.split.us105, !llvm.loop !6

.loopexit.us:                                     ; preds = %40, %50, %._crit_edge.split.us98, %.preheader57.us86
  %.1.us95 = phi ptr [ %.lcssa220.mux, %._crit_edge.split.us98 ], [ %.03374.us87, %.preheader57.us86 ], [ %52, %50 ], [ %42, %40 ]
  br i1 %1, label %.thread53, label %44

44:                                               ; preds = %.loopexit.us
  %45 = getelementptr inbounds nuw i8, ptr %.1.us95, i64 8
  %46 = load ptr, ptr %45, align 8
  %.not.us96 = icmp eq ptr %46, null
  br i1 %.not.us96, label %.thread53, label %.preheader57.us86

.lr.ph66.us:                                      ; preds = %._crit_edge.split.us98
  br i1 %.not188, label %.lr.ph66.split.us.us, label %.lr.ph66.split.us105

.lr.ph66.split.us.us:                             ; preds = %.lr.ph66.us, %50
  %.265.us.us = phi ptr [ %52, %50 ], [ %.03374.us87, %.lr.ph66.us ]
  %47 = getelementptr inbounds nuw i8, ptr %.265.us.us, i64 16
  %48 = tail call i32 @strcmp(ptr noundef nonnull dereferenceable(1) %47, ptr noundef nonnull dereferenceable(1) %3) #15
  %49 = icmp eq i32 %48, 0
  br i1 %49, label %.split69.us, label %50

50:                                               ; preds = %.lr.ph66.split.us.us
  %51 = getelementptr inbounds nuw i8, ptr %.265.us.us, i64 8
  %52 = load ptr, ptr %51, align 8
  %53 = load i32, ptr %52, align 8
  %.not43.us.us = icmp eq i32 %53, 0
  br i1 %.not43.us.us, label %.loopexit.us, label %.lr.ph66.split.us.us, !llvm.loop !6

.split.us:                                        ; preds = %.lr.ph.us97, %.lr.ph.us, %.lr.ph.split.us.us.us
  %.us-phi = phi ptr [ %.02961.us.us.us, %.lr.ph.split.us.us.us ], [ %.02961.us.us, %.lr.ph.us ], [ %.02961.us89, %.lr.ph.us97 ]
  %.not47 = icmp eq ptr %5, null
  br i1 %.not47, label %.thread, label %.thread.sink.split

.split69.us:                                      ; preds = %.lr.ph66.split.us105, %.lr.ph66.split.us.us
  %.us-phi70 = phi ptr [ %.265.us.us, %.lr.ph66.split.us.us ], [ %.265.us93, %.lr.ph66.split.us105 ]
  %.not45 = icmp eq ptr %5, null
  br i1 %.not45, label %.thread, label %.thread.sink.split

.thread53:                                        ; preds = %44, %.loopexit.us, %._crit_edge.split.us.us, %11, %.preheader57.us.us, %6
  %.not48 = icmp eq ptr %5, null
  br i1 %.not48, label %.thread, label %.thread.sink.split

.thread.sink.split:                               ; preds = %.thread53, %.split69.us, %.split.us
  %.sink = phi i32 [ 1, %.split.us ], [ 2, %.split69.us ], [ 0, %.thread53 ]
  %.232.ph = phi ptr [ %.us-phi, %.split.us ], [ %.us-phi70, %.split69.us ], [ null, %.thread53 ]
  store i32 %.sink, ptr %5, align 4
  br label %.thread

.thread:                                          ; preds = %.thread.sink.split, %.split69.us, %.split.us, %.thread53
  %.232 = phi ptr [ null, %.thread53 ], [ %.us-phi70, %.split69.us ], [ %.us-phi, %.split.us ], [ %.232.ph, %.thread.sink.split ]
  ret ptr %.232
}